; Function Attrs: mustprogress nofree norecurse nosync nounwind willreturn memory(read, inaccessiblemem: none) uwtable
define dso_local noundef i64 @_ZNK4llvm6detail16SlowDynamicAPIntcvlEv(ptr nocapture noundef nonnull readonly align 8 dereferenceable(16) %0) local_unnamed_addr #2 align 2 {
  %2 = getelementptr inbounds nuw i8, ptr %0, i64 8
  %3 = load i32, ptr %2, align 8
  %4 = icmp ult i32 %3, 65
  br i1 %4, label %5, label %12

5:                                                ; preds = %1
  %6 = load i64, ptr %0, align 8
  %7 = icmp eq i32 %3, 0
  %8 = sub nuw nsw i32 64, %3
  %9 = zext nneg i32 %8 to i64
  %10 = shl i64 %6, %9
  %11 = ashr exact i64 %10, %9
  %.0.i.i = select i1 %7, i64 0, i64 %11
  br label %_ZNK4llvm5APInt12getSExtValueEv.exit

12:                                               ; preds = %1
  %13 = load ptr, ptr %0, align 8
  %14 = load i64, ptr %13, align 8
  br label %_ZNK4llvm5APInt12getSExtValueEv.exit

_ZNK4llvm5APInt12getSExtValueEv.exit:             ; preds = %5, %12
  %.0.i = phi i64 [ %.0.i.i, %5 ], [ %14, %12 ]
  ret i64 %.0.i
}